target datalayout = "e-m:e-p270:32:32-p271:32:32-p272:64:64-i64:64-i128:128-f80:128-n8:16:32:64-S128"
target triple = "x86_64-pc-linux-gnu"

%struct.redisServer = type { i32, i64, ptr, ptr, ptr, i32, i32, i32, i32, i32, ptr, ptr, ptr, ptr, ptr, i32, i32, i32, i32, i64, i32, i32, i32, i32, ptr, i32, i32, [41 x i8], i32, i64, i32, i32, i32, ptr, ptr, i32, i32, i64, ptr, ptr, ptr, ptr, [2 x i32], i32, i32, i32, i32, i32, i32, [16 x ptr], i32, ptr, ptr, i32, [8 x %struct.connListener], i32, %struct.connListener, ptr, ptr, ptr, ptr, ptr, ptr, ptr, ptr, ptr, ptr, i32, ptr, i32, ptr, [3 x %struct.pause_event], [256 x i8], ptr, i64, i32, i32, [128 x i32], i32, i32, i64, i32, i32, i32, i32, i32, i64, i64, i64, i64, i64, i64, i64, i64, i64, i64, double, i64, i64, i64, i64, i64, i64, i64, i64, i64, i64, i64, i64, i64, i64, i64, i64, i64, i64, i64, i64, i64, double, i64, i64, i64, i64, i64, ptr, i64, i64, i64, %struct.malloc_stats, i64, i64, i64, i64, i64, i64, i64, i64, i64, i64, i64, i64, double, [4 x i64], i64, i64, i64, i64, [128 x i64], [128 x i64], i64, i64, [7 x %struct.anon.2], i64, i64, i64, i64, i64, i64, [4 x %struct.durationStats], i32, i32, i32, i32, i32, i32, i32, i32, i32, i32, i32, i32, i64, i32, i32, i32, i32, i64, i64, i32, i32, i32, i32, i32, ptr, [3 x %struct.clientBufferLimitsConfig], i32, i32, i32, ptr, i32, i32, i32, i32, i32, i32, ptr, ptr, i32, i32, i64, i64, i64, i64, i64, i32, i32, ptr, i32, i32, i64, i64, i64, i64, i64, i32, i32, i64, i32, i32, i32, i32, i32, i32, i32, i32, ptr, i32, i64, i64, i64, i64, i32, ptr, i32, ptr, i32, i32, i32, i64, i64, i64, i64, i32, i32, i32, i32, i32, i32, ptr, i32, i32, ptr, i32, i32, i32, [2 x i32], i32, %struct.redisOpArray, i32, ptr, i32, ptr, i32, i32, i32, i32, i32, i32, i32, [41 x i8], [41 x i8], i64, i64, i64, i64, i32, i32, ptr, i64, i64, %struct.replDataBuf, i64, i64, i32, i32, i32, i32, i32, i32, i32, i32, i32, i64, ptr, i64, ptr, ptr, ptr, i32, i32, ptr, ptr, i32, i32, i32, i64, i64, i64, i64, ptr, ptr, i32, ptr, i64, i32, i32, i32, i64, i32, i32, i32, i32, ptr, i32, i32, [41 x i8], i64, i32, ptr, i32, i32, i64, i64, i32, i32, i32, i32, i32, i64, [3 x i32], i32, i32, i32, [10 x i32], ptr, ptr, i32, i64, ptr, ptr, i32, i32, i32, i32, i64, i64, i64, i64, i64, i64, i64, i64, i64, i64, i32, i32, i64, i64, i32, i64, i64, i64, i64, i64, ptr, ptr, i32, ptr, i32, i32, i32, i32, i64, i64, ptr, ptr, i32, i32, i32, i32, i32, ptr, ptr, ptr, i32, i32, i32, i32, i32, i32, i32, i64, i32, i32, i64, i32, i32, i32, i32, i32, i32, i32, i64, ptr, ptr, i64, ptr, i32, %struct.aclInfo, i32, i64, i32, i32, i32, %struct.redisTLSContextConfig, ptr, ptr, ptr, ptr, ptr, i64, i32, ptr, i32, i32, i32, i64, i32, ptr }
%struct.connListener = type { [16 x i32], i32, ptr, i32, i32, ptr, ptr }
%struct.pause_event = type { i32, i64 }
%struct.malloc_stats = type { i64, i64, i64, i64, i64, i64, i64, i64, i64, i64, i64 }
%struct.anon.2 = type { i64, i64, [16 x i64], i32 }
%struct.durationStats = type { i64, i64, i64 }
%struct.clientBufferLimitsConfig = type { i64, i64, i64 }
%struct.redisOpArray = type { ptr, i32, i32 }
%struct.replDataBuf = type { ptr, i64, i64, i64, i64 }
%struct.aclInfo = type { i64, i64, i64, i64 }
%struct.redisTLSContextConfig = type { ptr, ptr, ptr, ptr, ptr, ptr, ptr, ptr, ptr, ptr, ptr, ptr, i32, i32, i32, i32 }
%struct.redisObject = type { i32, i32, ptr }
%struct.sdshdr8 = type { i8, i8, i8, [0 x i8] }
%struct.sdshdr16 = type <{ i16, i16, i8, [0 x i8] }>
%struct.sdshdr32 = type <{ i32, i32, i8, [0 x i8] }>
%struct.sdshdr64 = type <{ i64, i64, i8, [0 x i8] }>

@server = external global %struct.redisServer, align 8
@.str.35 = private unnamed_addr constant [150 x i8] c"Module attempted to use an in-place string modify operation with a string referenced multiple times. Please check the code for API usage correctness.\00", align 1

; Function Attrs: inlinehint nounwind uwtable
define internal i64 @sdslen(ptr noundef %0) #10 {
  %2 = alloca i64, align 8
  %3 = alloca ptr, align 8
  %4 = alloca i8, align 1
  %5 = alloca i32, align 4
  store ptr %0, ptr %3, align 8, !tbaa !11
  call void @llvm.lifetime.start.p0(i64 1, ptr %4) #15
  %6 = load ptr, ptr %3, align 8, !tbaa !11
  %7 = getelementptr inbounds i8, ptr %6, i64 -1
  %8 = load i8, ptr %7, align 1, !tbaa !72
  store i8 %8, ptr %4, align 1, !tbaa !72
  %9 = load i8, ptr %4, align 1, !tbaa !72
  %10 = zext i8 %9 to i32
  %11 = and i32 %10, 7
  switch i32 %11, label %40 [
    i32 0, label %12
    i32 1, label %17
    i32 2, label %23
    i32 3, label %29
    i32 4, label %35
  ]

12:                                               ; preds = %1
  %13 = load i8, ptr %4, align 1, !tbaa !72
  %14 = zext i8 %13 to i32
  %15 = ashr i32 %14, 3
  %16 = sext i32 %15 to i64
  store i64 %16, ptr %2, align 8
  store i32 1, ptr %5, align 4
  br label %41

17:                                               ; preds = %1
  %18 = load ptr, ptr %3, align 8, !tbaa !11
  %19 = getelementptr inbounds i8, ptr %18, i64 -3
  %20 = getelementptr inbounds nuw %struct.sdshdr8, ptr %19, i32 0, i32 0
  %21 = load i8, ptr %20, align 1, !tbaa !72
  %22 = zext i8 %21 to i64
  store i64 %22, ptr %2, align 8
  store i32 1, ptr %5, align 4
  br label %41

23:                                               ; preds = %1
  %24 = load ptr, ptr %3, align 8, !tbaa !11
  %25 = getelementptr inbounds i8, ptr %24, i64 -5
  %26 = getelementptr inbounds nuw %struct.sdshdr16, ptr %25, i32 0, i32 0
  %27 = load i16, ptr %26, align 1, !tbaa !314
  %28 = zext i16 %27 to i64
  store i64 %28, ptr %2, align 8
  store i32 1, ptr %5, align 4
  br label %41

29:                                               ; preds = %1
  %30 = load ptr, ptr %3, align 8, !tbaa !11
  %31 = getelementptr inbounds i8, ptr %30, i64 -9
  %32 = getelementptr inbounds nuw %struct.sdshdr32, ptr %31, i32 0, i32 0
  %33 = load i32, ptr %32, align 1, !tbaa !29
  %34 = zext i32 %33 to i64
  store i64 %34, ptr %2, align 8
  store i32 1, ptr %5, align 4
  br label %41

35:                                               ; preds = %1
  %36 = load ptr, ptr %3, align 8, !tbaa !11
  %37 = getelementptr inbounds i8, ptr %36, i64 -17
  %38 = getelementptr inbounds nuw %struct.sdshdr64, ptr %37, i32 0, i32 0
  %39 = load i64, ptr %38, align 1, !tbaa !5
  store i64 %39, ptr %2, align 8
  store i32 1, ptr %5, align 4
  br label %41

40:                                               ; preds = %1
  store i64 0, ptr %2, align 8
  store i32 1, ptr %5, align 4
  br label %41

41:                                               ; preds = %40, %35, %29, %23, %17, %12
  call void @llvm.lifetime.end.p0(i64 1, ptr %4) #15
  %42 = load i64, ptr %2, align 8
  ret i64 %42
}

; Function Attrs: nounwind uwtable
define dso_local ptr @moduleAssertUnsharedString(ptr noundef %0) #0 {
  %2 = alloca ptr, align 8
  %3 = alloca ptr, align 8
  store ptr %0, ptr %3, align 8, !tbaa !69
  %4 = load ptr, ptr %3, align 8, !tbaa !69
  %5 = getelementptr inbounds nuw %struct.redisObject, ptr %4, i32 0, i32 1
  %6 = load i32, ptr %5, align 4, !tbaa !150
  %7 = icmp ne i32 %6, 1
  br i1 %7, label %8, label %15

8:                                                ; preds = %1
  br label %9

9:                                                ; preds = %8
  %10 = load i32, ptr getelementptr inbounds nuw (%struct.redisServer, ptr @server, i32 0, i32 159), align 8, !tbaa !101
  %11 = icmp slt i32 3, %10
  br i1 %11, label %12, label %13

12:                                               ; preds = %9
  br label %14

13:                                               ; preds = %9
  call void (i32, ptr, ...) @_serverLog(i32 noundef 3, ptr noundef @.str.35)
  br label %14

14:                                               ; preds = %13, %12
  store ptr null, ptr %2, align 8
  br label %57

15:                                               ; preds = %1
  %16 = load ptr, ptr %3, align 8, !tbaa !69
  %17 = load i32, ptr %16, align 8
  %18 = lshr i32 %17, 4
  %19 = and i32 %18, 15
  %20 = icmp eq i32 %19, 8
  br i1 %20, label %21, label %36

21:                                               ; preds = %15
  %22 = load ptr, ptr %3, align 8, !tbaa !69
  %23 = getelementptr inbounds nuw %struct.redisObject, ptr %22, i32 0, i32 2
  %24 = load ptr, ptr %23, align 8, !tbaa !313
  %25 = load ptr, ptr %3, align 8, !tbaa !69
  %26 = getelementptr inbounds nuw %struct.redisObject, ptr %25, i32 0, i32 2
  %27 = load ptr, ptr %26, align 8, !tbaa !313
  %28 = call i64 @sdslen(ptr noundef %27)
  %29 = call ptr @sdsnewlen(ptr noundef %24, i64 noundef %28)
  %30 = load ptr, ptr %3, align 8, !tbaa !69
  %31 = getelementptr inbounds nuw %struct.redisObject, ptr %30, i32 0, i32 2
  store ptr %29, ptr %31, align 8, !tbaa !313
  %32 = load ptr, ptr %3, align 8, !tbaa !69
  %33 = load i32, ptr %32, align 8
  %34 = and i32 %33, -241
  %35 = or i32 %34, 0
  store i32 %35, ptr %32, align 8
  br label %55

36:                                               ; preds = %15
  %37 = load ptr, ptr %3, align 8, !tbaa !69
  %38 = load i32, ptr %37, align 8
  %39 = lshr i32 %38, 4
  %40 = and i32 %39, 15
  %41 = icmp eq i32 %40, 1
  br i1 %41, label %42, label %54

42:                                               ; preds = %36
  %43 = load ptr, ptr %3, align 8, !tbaa !69
  %44 = getelementptr inbounds nuw %struct.redisObject, ptr %43, i32 0, i32 2
  %45 = load ptr, ptr %44, align 8, !tbaa !313
  %46 = ptrtoint ptr %45 to i64
  %47 = call ptr @sdsfromlonglong(i64 noundef %46)
  %48 = load ptr, ptr %3, align 8, !tbaa !69
  %49 = getelementptr inbounds nuw %struct.redisObject, ptr %48, i32 0, i32 2
  store ptr %47, ptr %49, align 8, !tbaa !313
  %50 = load ptr, ptr %3, align 8, !tbaa !69
  %51 = load i32, ptr %50, align 8
  %52 = and i32 %51, -241
  %53 = or i32 %52, 0
  store i32 %53, ptr %50, align 8
  br label %54

54:                                               ; preds = %42, %36
  br label %55

55:                                               ; preds = %54, %21
  %56 = load ptr, ptr %3, align 8, !tbaa !69
  store ptr %56, ptr %2, align 8
  br label %57

57:                                               ; preds = %55, %14
  %58 = load ptr, ptr %2, align 8
  ret ptr %58
}