; Function Attrs: nounwind uwtable
define dso_local noundef ptr @moduleAssertUnsharedString(ptr noundef captures(ret: address, provenance) %0) local_unnamed_addr #0 {
  %2 = getelementptr inbounds nuw i8, ptr %0, i64 4
  %3 = load i32, ptr %2, align 4, !tbaa !142
  %.not = icmp eq i32 %3, 1
  br i1 %.not, label %8, label %4

4:                                                ; preds = %1
  %5 = load i32, ptr getelementptr inbounds nuw (i8, ptr @server, i64 6288), align 8, !tbaa !90
  %6 = icmp sgt i32 %5, 3
  br i1 %6, label %47, label %7

7:                                                ; preds = %4
  tail call void (i32, ptr, ...) @_serverLog(i32 noundef 3, ptr noundef nonnull @.str.35) #35
  br label %47

8:                                                ; preds = %1
  %9 = load i32, ptr %0, align 8
  %10 = lshr i32 %9, 4
  %11 = and i32 %10, 15
  switch i32 %11, label %47 [
    i32 8, label %12
    i32 1, label %40
  ]

12:                                               ; preds = %8
  %13 = getelementptr inbounds nuw i8, ptr %0, i64 8
  %14 = load ptr, ptr %13, align 8, !tbaa !269
  %15 = getelementptr inbounds i8, ptr %14, i64 -1
  %16 = load i8, ptr %15, align 1, !tbaa !60
  %17 = zext i8 %16 to i32
  %18 = and i32 %17, 7
  switch i32 %18, label %sdslen.exit [
    i32 0, label %19
    i32 1, label %22
    i32 2, label %26
    i32 3, label %30
    i32 4, label %34
  ]

19:                                               ; preds = %12
  %20 = lshr i32 %17, 3
  %21 = zext nneg i32 %20 to i64
  br label %sdslen.exit

22:                                               ; preds = %12
  %23 = getelementptr inbounds i8, ptr %14, i64 -3
  %24 = load i8, ptr %23, align 1, !tbaa !60
  %25 = zext i8 %24 to i64
  br label %sdslen.exit

26:                                               ; preds = %12
  %27 = getelementptr inbounds i8, ptr %14, i64 -5
  %28 = load i16, ptr %27, align 1, !tbaa !270
  %29 = zext i16 %28 to i64
  br label %sdslen.exit

30:                                               ; preds = %12
  %31 = getelementptr inbounds i8, ptr %14, i64 -9
  %32 = load i32, ptr %31, align 1, !tbaa !22
  %33 = zext i32 %32 to i64
  br label %sdslen.exit

34:                                               ; preds = %12
  %35 = getelementptr inbounds i8, ptr %14, i64 -17
  %36 = load i64, ptr %35, align 1, !tbaa !24
  br label %sdslen.exit

sdslen.exit:                                      ; preds = %12, %19, %22, %26, %30, %34
  %.0.i = phi i64 [ %36, %34 ], [ %33, %30 ], [ %29, %26 ], [ %25, %22 ], [ %21, %19 ], [ 0, %12 ]
  %37 = tail call ptr @sdsnewlen(ptr noundef nonnull %14, i64 noundef %.0.i) #35
  store ptr %37, ptr %13, align 8, !tbaa !269
  %38 = load i32, ptr %0, align 8
  %39 = and i32 %38, -241
  store i32 %39, ptr %0, align 8
  br label %47

40:                                               ; preds = %8
  %41 = getelementptr inbounds nuw i8, ptr %0, i64 8
  %42 = load ptr, ptr %41, align 8, !tbaa !269
  %43 = ptrtoint ptr %42 to i64
  %44 = tail call ptr @sdsfromlonglong(i64 noundef %43) #35
  store ptr %44, ptr %41, align 8, !tbaa !269
  %45 = load i32, ptr %0, align 8
  %46 = and i32 %45, -241
  store i32 %46, ptr %0, align 8
  br label %47

47:                                               ; preds = %sdslen.exit, %40, %8, %7, %4
  %.0 = phi ptr [ null, %4 ], [ null, %7 ], [ %0, %8 ], [ %0, %40 ], [ %0, %sdslen.exit ]
  ret ptr %.0
}